; Function Attrs: nounwind uwtable
define range(i32 -1, -2147483648) i32 @H5Requal(ptr noundef %0, ptr noundef %1) local_unnamed_addr #0 {
  %3 = load i8, ptr @H5_libinit_g, align 1
  %4 = trunc i8 %3 to i1
  %5 = load i8, ptr @H5_libterm_g, align 1
  %6 = trunc i8 %5 to i1
  %7 = select i1 %4, i1 true, i1 %6
  br i1 %7, label %15, label %8

8:                                                ; preds = %2
  %9 = tail call i32 @H5_init_library() #4
  %10 = icmp slt i32 %9, 0
  br i1 %10, label %11, label %15

11:                                               ; preds = %8
  %12 = load i64, ptr @H5E_FUNC_g, align 8
  %13 = load i64, ptr @H5E_CANTINIT_g, align 8
  %14 = tail call i32 (ptr, ptr, i32, i64, i64, ptr, ...) @H5E_printf_stack(ptr noundef nonnull @.str, ptr noundef nonnull @__func__.H5Requal, i32 noundef 435, i64 noundef %12, i64 noundef %13, ptr noundef nonnull @.str.1) #4
  br label %.thread24

15:                                               ; preds = %8, %2
  %16 = tail call i32 @H5CX_push() #4
  %17 = icmp slt i32 %16, 0
  br i1 %17, label %18, label %22

18:                                               ; preds = %15
  %19 = load i64, ptr @H5E_FUNC_g, align 8
  %20 = load i64, ptr @H5E_CANTSET_g, align 8
  %21 = tail call i32 (ptr, ptr, i32, i64, i64, ptr, ...) @H5E_printf_stack(ptr noundef nonnull @.str, ptr noundef nonnull @__func__.H5Requal, i32 noundef 435, i64 noundef %19, i64 noundef %20, ptr noundef nonnull @.str.2) #4
  br label %.thread24

22:                                               ; preds = %15
  %23 = tail call i32 @H5E_clear_stack() #4
  %24 = icmp ne ptr %0, null
  %25 = icmp ne ptr %1, null
  %or.cond = and i1 %24, %25
  br i1 %or.cond, label %30, label %26

26:                                               ; preds = %22
  %27 = load i64, ptr @H5E_ARGS_g, align 8
  %28 = load i64, ptr @H5E_BADVALUE_g, align 8
  %29 = tail call i32 (ptr, ptr, i32, i64, i64, ptr, ...) @H5E_printf_stack(ptr noundef nonnull @.str, ptr noundef nonnull @__func__.H5Requal, i32 noundef 439, i64 noundef %27, i64 noundef %28, ptr noundef nonnull @.str.3) #4
  br label %.thread30

30:                                               ; preds = %22
  %31 = tail call i32 @H5R__equal(ptr noundef nonnull %0, ptr noundef nonnull %1) #4
  %32 = icmp slt i32 %31, 0
  br i1 %32, label %33, label %38

33:                                               ; preds = %30
  %34 = load i64, ptr @H5E_REFERENCE_g, align 8
  %35 = load i64, ptr @H5E_CANTCOMPARE_g, align 8
  %36 = tail call i32 (ptr, ptr, i32, i64, i64, ptr, ...) @H5E_printf_stack(ptr noundef nonnull @.str, ptr noundef nonnull @__func__.H5Requal, i32 noundef 443, i64 noundef %34, i64 noundef %35, ptr noundef nonnull @.str.21) #4
  br label %.thread30

.thread30:                                        ; preds = %26, %33
  %37 = tail call i32 @H5CX_pop(i1 noundef zeroext true) #4
  br label %.thread24

38:                                               ; preds = %30
  %39 = tail call i32 @H5CX_pop(i1 noundef zeroext true) #4
  br label %41

.thread24:                                        ; preds = %18, %11, %.thread30
  %40 = tail call i32 @H5E_dump_api_stack() #4
  br label %41

41:                                               ; preds = %38, %.thread24
  %.0121927 = phi i32 [ -1, %.thread24 ], [ %31, %38 ]
  ret i32 %.0121927
}